target datalayout = "e-m:e-p270:32:32-p271:32:32-p272:64:64-i64:64-i128:128-f80:128-n8:16:32:64-S128"
target triple = "x86_64-pc-linux-gnu"

%struct.CVodeMemRec = type { ptr, double, ptr, ptr, i32, i32, double, double, ptr, i32, i32, ptr, ptr, i32, i32, ptr, i32, i32, double, double, ptr, i32, i32, i32, i32, ptr, ptr, ptr, i32, i32, ptr, ptr, ptr, i32, double, i32, i32, double, ptr, ptr, ptr, i32, ptr, ptr, i32, i32, i32, double, ptr, ptr, ptr, [13 x ptr], ptr, ptr, ptr, ptr, ptr, ptr, ptr, ptr, ptr, [13 x ptr], ptr, ptr, ptr, ptr, [13 x ptr], ptr, ptr, ptr, ptr, ptr, i32, [13 x ptr], ptr, ptr, ptr, ptr, ptr, i32, i32, double, i32, i32, i32, i32, i32, double, double, double, double, double, double, double, double, [14 x double], [6 x double], [13 x double], double, double, double, double, double, double, double, double, i32, double, double, i32, double, double, ptr, i32, i64, i32, i32, i32, double, double, double, double, double, double, double, double, double, double, double, double, i64, i32, i64, i64, i64, i64, i64, i64, i64, i64, i64, ptr, i64, i64, ptr, i64, i64, ptr, i64, i64, i64, i64, i64, i64, i32, double, double, double, i64, i64, i64, i64, i64, i64, ptr, i32, ptr, i32, ptr, i32, ptr, i32, i32, i64, i32, ptr, i32, ptr, ptr, ptr, ptr, ptr, ptr, i32, i32, ptr, ptr, ptr, ptr, ptr, i64, double, i32, i32, i64, double, double, double, i32, i32, double, i32, i32, i32, i32, i32, i32, i32, i32, i32, i32, i32, i32, i32, i32, i32, i32, ptr, i64, i32, [6 x [4 x double]], i32, i64, ptr, i32, ptr, ptr, double, double, double, ptr, ptr, ptr, double, double, i32, i32, i64, ptr, i32, ptr, i32, i32, [13 x double], ptr, ptr, ptr, i32, ptr, i32 }

@.str = private unnamed_addr constant [115 x i8] c"generated/home/dtcxzyw/WorkSpace/Projects/compilers/llvm-opt-benchmark/bench/sundials/sundials/src/cvodes/cvodes.c\00", align 1
@.str.4 = private unnamed_addr constant [26 x i8] c"cvode_mem = NULL illegal.\00", align 1
@__func__.CVodeComputeStateSens = private unnamed_addr constant [22 x i8] c"CVodeComputeStateSens\00", align 1

; Function Attrs: nounwind uwtable
define i32 @CVodeComputeStateSens(ptr noundef %0, ptr noundef %1, ptr noundef %2) #0 {
  %4 = alloca i32, align 4
  %5 = alloca ptr, align 8
  %6 = alloca ptr, align 8
  %7 = alloca ptr, align 8
  %8 = alloca i32, align 4
  %9 = alloca ptr, align 8
  %10 = alloca i32, align 4
  store ptr %0, ptr %5, align 8, !tbaa !153
  store ptr %1, ptr %6, align 8, !tbaa !152
  store ptr %2, ptr %7, align 8, !tbaa !152
  call void @llvm.lifetime.start.p0(i64 4, ptr %8) #10
  call void @llvm.lifetime.start.p0(i64 8, ptr %9) #10
  %11 = load ptr, ptr %5, align 8, !tbaa !153
  %12 = icmp eq ptr %11, null
  br i1 %12, label %13, label %14

13:                                               ; preds = %3
  call void (ptr, i32, i32, ptr, ptr, ptr, ...) @cvProcessError(ptr noundef null, i32 noundef -21, i32 noundef 3675, ptr noundef @__func__.CVodeComputeStateSens, ptr noundef @.str, ptr noundef @.str.4)
  store i32 -21, ptr %4, align 4
  store i32 1, ptr %10, align 4
  br label %30

14:                                               ; preds = %3
  %15 = load ptr, ptr %5, align 8, !tbaa !153
  store ptr %15, ptr %9, align 8, !tbaa !10
  %16 = load ptr, ptr %9, align 8, !tbaa !10
  %17 = getelementptr inbounds nuw %struct.CVodeMemRec, ptr %16, i32 0, i32 23
  %18 = load i32, ptr %17, align 8, !tbaa !230
  %19 = load ptr, ptr %9, align 8, !tbaa !10
  %20 = getelementptr inbounds nuw %struct.CVodeMemRec, ptr %19, i32 0, i32 66
  %21 = getelementptr inbounds [13 x ptr], ptr %20, i64 0, i64 0
  %22 = load ptr, ptr %21, align 8, !tbaa !152
  %23 = load ptr, ptr %6, align 8, !tbaa !152
  %24 = load ptr, ptr %7, align 8, !tbaa !152
  %25 = call i32 @N_VLinearSumVectorArray(i32 noundef %18, double noundef 1.000000e+00, ptr noundef %22, double noundef 1.000000e+00, ptr noundef %23, ptr noundef %24)
  store i32 %25, ptr %8, align 4, !tbaa !3
  %26 = load i32, ptr %8, align 4, !tbaa !3
  %27 = icmp ne i32 %26, 0
  br i1 %27, label %28, label %29

28:                                               ; preds = %14
  store i32 -28, ptr %4, align 4
  store i32 1, ptr %10, align 4
  br label %30

29:                                               ; preds = %14
  store i32 0, ptr %4, align 4
  store i32 1, ptr %10, align 4
  br label %30

30:                                               ; preds = %29, %28, %13
  call void @llvm.lifetime.end.p0(i64 8, ptr %9) #10
  call void @llvm.lifetime.end.p0(i64 4, ptr %8) #10
  %31 = load i32, ptr %4, align 4
  ret i32 %31
}