; Function Attrs: nounwind uwtable
define range(i32 -28, 1) i32 @CVodeComputeStateSens(ptr noundef readonly captures(address_is_null) %0, ptr noundef %1, ptr noundef %2) local_unnamed_addr #0 {
  %4 = icmp eq ptr %0, null
  br i1 %4, label %5, label %6

5:                                                ; preds = %3
  tail call void (ptr, i32, i32, ptr, ptr, ptr, ...) @cvProcessError(ptr noundef null, i32 noundef -21, i32 noundef 3675, ptr noundef nonnull @__func__.CVodeComputeStateSens, ptr noundef nonnull @.str, ptr noundef nonnull @.str.4)
  br label %12

6:                                                ; preds = %3
  %7 = getelementptr inbounds nuw i8, ptr %0, i64 144
  %8 = load i32, ptr %7, align 8, !tbaa !156
  %9 = getelementptr inbounds nuw i8, ptr %0, i64 648
  %10 = load ptr, ptr %9, align 8, !tbaa !160
  %11 = tail call i32 @N_VLinearSumVectorArray(i32 noundef %8, double noundef 1.000000e+00, ptr noundef %10, double noundef 1.000000e+00, ptr noundef %1, ptr noundef %2) #13
  %.not = icmp eq i32 %11, 0
  %. = select i1 %.not, i32 0, i32 -28
  br label %12

12:                                               ; preds = %6, %5
  %.0 = phi i32 [ -21, %5 ], [ %., %6 ]
  ret i32 %.0
}